; Function Attrs: nounwind uwtable
define hidden void @OnAudioStreamCreated(ptr noundef %0) local_unnamed_addr #0 {
  %2 = load ptr, ptr getelementptr inbounds nuw (i8, ptr @current_audio, i64 136), align 8
  %.not = icmp eq ptr %2, null
  br i1 %.not, label %11, label %3

3:                                                ; preds = %1
  tail call void @SDL_LockRWLockForWriting_REAL(ptr noundef nonnull %2) #14
  %4 = load ptr, ptr getelementptr inbounds nuw (i8, ptr @current_audio, i64 152), align 8
  %.not5 = icmp eq ptr %4, null
  br i1 %.not5, label %7, label %5

5:                                                ; preds = %3
  %6 = getelementptr inbounds nuw i8, ptr %4, i64 216
  store ptr %0, ptr %6, align 8
  br label %7

7:                                                ; preds = %5, %3
  %8 = getelementptr inbounds nuw i8, ptr %0, i64 216
  store ptr null, ptr %8, align 8
  %9 = getelementptr inbounds nuw i8, ptr %0, i64 224
  store ptr %4, ptr %9, align 8
  store ptr %0, ptr getelementptr inbounds nuw (i8, ptr @current_audio, i64 152), align 8
  %10 = load ptr, ptr getelementptr inbounds nuw (i8, ptr @current_audio, i64 136), align 8
  tail call void @SDL_UnlockRWLock_REAL(ptr noundef %10) #14
  br label %11

11:                                               ; preds = %7, %1
  ret void
}